target datalayout = "e-m:e-p270:32:32-p271:32:32-p272:64:64-i64:64-i128:128-f80:128-n8:16:32:64-S128"
target triple = "x86_64-pc-linux-gnu"

%struct.AVClass = type { ptr, ptr, ptr, i32, i32, i32, i32, ptr, ptr, ptr, ptr, i32 }

@.str.9 = private unnamed_addr constant [2 x i8] c"\0A\00", align 1

; Function Attrs: nounwind uwtable
define void @show_help_children(ptr noundef %0, i32 noundef %1) #0 {
  %3 = alloca ptr, align 8
  %4 = alloca i32, align 4
  %5 = alloca ptr, align 8
  %6 = alloca ptr, align 8
  store ptr %0, ptr %3, align 8, !tbaa !30
  store i32 %1, ptr %4, align 4, !tbaa !8
  call void @llvm.lifetime.start.p0(i64 8, ptr %5) #11
  store ptr null, ptr %5, align 8, !tbaa !4
  call void @llvm.lifetime.start.p0(i64 8, ptr %6) #11
  %7 = load ptr, ptr %3, align 8, !tbaa !30
  %8 = getelementptr inbounds nuw %struct.AVClass, ptr %7, i32 0, i32 2
  %9 = load ptr, ptr %8, align 8, !tbaa !32
  %10 = icmp ne ptr %9, null
  br i1 %10, label %11, label %15

11:                                               ; preds = %2
  %12 = load i32, ptr %4, align 4, !tbaa !8
  %13 = call i32 @av_opt_show2(ptr noundef %3, ptr noundef null, i32 noundef %12, i32 noundef 0)
  %14 = call i32 (ptr, ...) @printf(ptr noundef @.str.9)
  br label %15

15:                                               ; preds = %11, %2
  br label %16

16:                                               ; preds = %20, %15
  %17 = load ptr, ptr %3, align 8, !tbaa !30
  %18 = call ptr @av_opt_child_class_iterate(ptr noundef %17, ptr noundef %5)
  store ptr %18, ptr %6, align 8, !tbaa !30
  %19 = icmp ne ptr %18, null
  br i1 %19, label %20, label %23

20:                                               ; preds = %16
  %21 = load ptr, ptr %6, align 8, !tbaa !30
  %22 = load i32, ptr %4, align 4, !tbaa !8
  call void @show_help_children(ptr noundef %21, i32 noundef %22)
  br label %16, !llvm.loop !35

23:                                               ; preds = %16
  call void @llvm.lifetime.end.p0(i64 8, ptr %6) #11
  call void @llvm.lifetime.end.p0(i64 8, ptr %5) #11
  ret void
}