; Function Attrs: nounwind uwtable
define void @show_help_children(ptr noundef %0, i32 noundef %1) local_unnamed_addr #0 {
  %3 = alloca ptr, align 8
  %4 = alloca ptr, align 8
  store ptr %0, ptr %3, align 8, !tbaa !22
  call void @llvm.lifetime.start.p0(i64 8, ptr nonnull %4) #15
  store ptr null, ptr %4, align 8, !tbaa !24
  %5 = getelementptr inbounds nuw i8, ptr %0, i64 16
  %6 = load ptr, ptr %5, align 8, !tbaa !25
  %.not = icmp eq ptr %6, null
  br i1 %.not, label %9, label %7

7:                                                ; preds = %2
  %8 = call i32 @av_opt_show2(ptr noundef nonnull %3, ptr noundef null, i32 noundef %1, i32 noundef 0) #15
  %putchar = call i32 @putchar(i32 10)
  %.pre = load ptr, ptr %3, align 8, !tbaa !22
  br label %9

9:                                                ; preds = %7, %2
  %10 = phi ptr [ %.pre, %7 ], [ %0, %2 ]
  %11 = call ptr @av_opt_child_class_iterate(ptr noundef %10, ptr noundef nonnull %4) #15
  %.not23 = icmp eq ptr %11, null
  br i1 %.not23, label %._crit_edge, label %.lr.ph

.lr.ph:                                           ; preds = %9, %.lr.ph
  %12 = phi ptr [ %14, %.lr.ph ], [ %11, %9 ]
  call void @show_help_children(ptr noundef nonnull %12, i32 noundef %1)
  %13 = load ptr, ptr %3, align 8, !tbaa !22
  %14 = call ptr @av_opt_child_class_iterate(ptr noundef %13, ptr noundef nonnull %4) #15
  %.not2 = icmp eq ptr %14, null
  br i1 %.not2, label %._crit_edge, label %.lr.ph, !llvm.loop !28

._crit_edge:                                      ; preds = %.lr.ph, %9
  call void @llvm.lifetime.end.p0(i64 8, ptr nonnull %4) #15
  ret void
}